target datalayout = "e-m:e-p270:32:32-p271:32:32-p272:64:64-i64:64-i128:128-f80:128-n8:16:32:64-S128"
target triple = "x86_64-pc-linux-gnu"

%"class.clang::SourceLocation" = type { i32 }
%"class.clang::DeclAccessPair" = type { %"struct.llvm::support::detail::packed_endian_specific_integral" }
%"struct.llvm::support::detail::packed_endian_specific_integral" = type { %struct.anon.1032 }
%struct.anon.1032 = type { [8 x i8] }
%"class.clang::SourceRange" = type { %"class.clang::SourceLocation", %"class.clang::SourceLocation" }
%"class.llvm::ArrayRef" = type { ptr, i64 }

; Function Attrs: mustprogress nounwind uwtable
define linkonce_odr hidden void @_ZN5clang14SourceLocationC2Ev(ptr noundef nonnull align 4 dereferenceable(4) %0) unnamed_addr #0 comdat align 2 {
  %2 = alloca ptr, align 8
  store ptr %0, ptr %2, align 8
  %3 = load ptr, ptr %2, align 8
  %4 = getelementptr inbounds nuw %"class.clang::SourceLocation", ptr %3, i32 0, i32 0
  store i32 0, ptr %4, align 4
  ret void
}

; Function Attrs: mustprogress nounwind uwtable
define linkonce_odr hidden void @_ZN5clang11SourceRangeC2ENS_14SourceLocationES1_(ptr noundef nonnull align 4 dereferenceable(8) %0, i32 %1, i32 %2) unnamed_addr #0 comdat align 2 {
  %4 = alloca %"class.clang::SourceLocation", align 4
  %5 = alloca %"class.clang::SourceLocation", align 4
  %6 = alloca ptr, align 8
  %7 = getelementptr inbounds nuw %"class.clang::SourceLocation", ptr %4, i32 0, i32 0
  store i32 %1, ptr %7, align 4
  %8 = getelementptr inbounds nuw %"class.clang::SourceLocation", ptr %5, i32 0, i32 0
  store i32 %2, ptr %8, align 4
  store ptr %0, ptr %6, align 8
  %9 = load ptr, ptr %6, align 8
  %10 = getelementptr inbounds nuw %"class.clang::SourceRange", ptr %9, i32 0, i32 0
  call void @llvm.memcpy.p0.p0.i64(ptr align 4 %10, ptr align 4 %4, i64 4, i1 false)
  %11 = getelementptr inbounds nuw %"class.clang::SourceRange", ptr %9, i32 0, i32 1
  call void @llvm.memcpy.p0.p0.i64(ptr align 4 %11, ptr align 4 %5, i64 4, i1 false)
  ret void
}

; Function Attrs: mustprogress nounwind uwtable
define linkonce_odr hidden noundef nonnull align 8 dereferenceable(8) ptr @_ZNK4llvm8ArrayRefIPN5clang4ExprEE4backEv(ptr noundef nonnull align 8 dereferenceable(16) %0) #0 comdat align 2 {
  %2 = alloca ptr, align 8
  store ptr %0, ptr %2, align 8
  %3 = load ptr, ptr %2, align 8
  %4 = getelementptr inbounds nuw %"class.llvm::ArrayRef", ptr %3, i32 0, i32 0
  %5 = load ptr, ptr %4, align 8
  %6 = getelementptr inbounds nuw %"class.llvm::ArrayRef", ptr %3, i32 0, i32 1
  %7 = load i64, ptr %6, align 8
  %8 = sub i64 %7, 1
  %9 = getelementptr inbounds ptr, ptr %5, i64 %8
  ret ptr %9
}

; Function Attrs: mustprogress nounwind uwtable
define linkonce_odr hidden noundef nonnull align 8 dereferenceable(8) ptr @_ZNK4llvm8ArrayRefIPN5clang4ExprEE5frontEv(ptr noundef nonnull align 8 dereferenceable(16) %0) #0 comdat align 2 {
  %2 = alloca ptr, align 8
  store ptr %0, ptr %2, align 8
  %3 = load ptr, ptr %2, align 8
  %4 = getelementptr inbounds nuw %"class.llvm::ArrayRef", ptr %3, i32 0, i32 0
  %5 = load ptr, ptr %4, align 8
  %6 = getelementptr inbounds ptr, ptr %5, i64 0
  ret ptr %6
}

; Function Attrs: mustprogress nounwind uwtable
define linkonce_odr hidden noundef zeroext i1 @_ZNK4llvm8ArrayRefIPN5clang4ExprEE5emptyEv(ptr noundef nonnull align 8 dereferenceable(16) %0) #0 comdat align 2 {
  %2 = alloca ptr, align 8
  store ptr %0, ptr %2, align 8
  %3 = load ptr, ptr %2, align 8
  %4 = getelementptr inbounds nuw %"class.llvm::ArrayRef", ptr %3, i32 0, i32 1
  %5 = load i64, ptr %4, align 8
  %6 = icmp eq i64 %5, 0
  ret i1 %6
}

; Function Attrs: mustprogress nounwind uwtable
define linkonce_odr hidden void @_ZN5clang11SourceRangeC2Ev(ptr noundef nonnull align 4 dereferenceable(8) %0) unnamed_addr #0 comdat align 2 {
  %2 = alloca ptr, align 8
  store ptr %0, ptr %2, align 8
  %3 = load ptr, ptr %2, align 8
  %4 = getelementptr inbounds nuw %"class.clang::SourceRange", ptr %3, i32 0, i32 0
  call void @_ZN5clang14SourceLocationC2Ev(ptr noundef nonnull align 4 dereferenceable(4) %4) #11
  %5 = getelementptr inbounds nuw %"class.clang::SourceRange", ptr %3, i32 0, i32 1
  call void @_ZN5clang14SourceLocationC2Ev(ptr noundef nonnull align 4 dereferenceable(4) %5) #11
  ret void
}

; Function Attrs: mustprogress nounwind uwtable
define dso_local noundef i32 @_ZN5clang4Sema25CheckMemberOperatorAccessENS_14SourceLocationEPNS_4ExprEN4llvm8ArrayRefIS3_EENS_14DeclAccessPairE(ptr noundef nonnull align 8 dereferenceable(17560) %0, i32 %1, ptr noundef %2, ptr %3, i64 %4, i64 %5) #0 align 2 {
  %7 = alloca %"class.clang::SourceLocation", align 4
  %8 = alloca %"class.llvm::ArrayRef", align 8
  %9 = alloca %"class.clang::DeclAccessPair", align 8
  %10 = alloca ptr, align 8
  %11 = alloca ptr, align 8
  %12 = alloca %"class.clang::SourceRange", align 4
  %13 = alloca %"class.clang::SourceRange", align 4
  %14 = alloca %"class.clang::SourceLocation", align 4
  %15 = alloca %"class.clang::SourceLocation", align 4
  %16 = alloca %"class.clang::SourceLocation", align 4
  %17 = alloca %"class.clang::DeclAccessPair", align 8
  %18 = getelementptr inbounds nuw %"class.clang::SourceLocation", ptr %7, i32 0, i32 0
  store i32 %1, ptr %18, align 4
  %19 = getelementptr inbounds nuw { ptr, i64 }, ptr %8, i32 0, i32 0
  store ptr %3, ptr %19, align 8
  %20 = getelementptr inbounds nuw { ptr, i64 }, ptr %8, i32 0, i32 1
  store i64 %4, ptr %20, align 8
  %21 = getelementptr inbounds nuw %"class.clang::DeclAccessPair", ptr %9, i32 0, i32 0
  %22 = getelementptr inbounds nuw %"struct.llvm::support::detail::packed_endian_specific_integral", ptr %21, i32 0, i32 0
  %23 = getelementptr inbounds nuw %struct.anon.1032, ptr %22, i32 0, i32 0
  store i64 %5, ptr %23, align 8
  store ptr %0, ptr %10, align 8
  store ptr %2, ptr %11, align 8
  %24 = load ptr, ptr %10, align 8
  call void @_ZN5clang11SourceRangeC2Ev(ptr noundef nonnull align 4 dereferenceable(8) %12) #11
  %25 = call noundef zeroext i1 @_ZNK4llvm8ArrayRefIPN5clang4ExprEE5emptyEv(ptr noundef nonnull align 8 dereferenceable(16) %8)
  br i1 %25, label %39, label %26

26:                                               ; preds = %6
  %27 = call noundef nonnull align 8 dereferenceable(8) ptr @_ZNK4llvm8ArrayRefIPN5clang4ExprEE5frontEv(ptr noundef nonnull align 8 dereferenceable(16) %8)
  %28 = load ptr, ptr %27, align 8
  %29 = call i32 @_ZNK5clang4Stmt11getBeginLocEv(ptr noundef nonnull align 8 dereferenceable(8) %28) #12
  %30 = getelementptr inbounds nuw %"class.clang::SourceLocation", ptr %14, i32 0, i32 0
  store i32 %29, ptr %30, align 4
  %31 = call noundef nonnull align 8 dereferenceable(8) ptr @_ZNK4llvm8ArrayRefIPN5clang4ExprEE4backEv(ptr noundef nonnull align 8 dereferenceable(16) %8)
  %32 = load ptr, ptr %31, align 8
  %33 = call i32 @_ZNK5clang4Stmt9getEndLocEv(ptr noundef nonnull align 8 dereferenceable(8) %32) #12
  %34 = getelementptr inbounds nuw %"class.clang::SourceLocation", ptr %15, i32 0, i32 0
  store i32 %33, ptr %34, align 4
  %35 = getelementptr inbounds nuw %"class.clang::SourceLocation", ptr %14, i32 0, i32 0
  %36 = load i32, ptr %35, align 4
  %37 = getelementptr inbounds nuw %"class.clang::SourceLocation", ptr %15, i32 0, i32 0
  %38 = load i32, ptr %37, align 4
  call void @_ZN5clang11SourceRangeC2ENS_14SourceLocationES1_(ptr noundef nonnull align 4 dereferenceable(8) %13, i32 %36, i32 %38)
  call void @llvm.memcpy.p0.p0.i64(ptr align 4 %12, ptr align 4 %13, i64 8, i1 false)
  br label %39

39:                                               ; preds = %26, %6
  call void @llvm.memcpy.p0.p0.i64(ptr align 4 %16, ptr align 4 %7, i64 4, i1 false)
  %40 = load ptr, ptr %11, align 8
  call void @llvm.memcpy.p0.p0.i64(ptr align 8 %17, ptr align 8 %9, i64 8, i1 false)
  %41 = getelementptr inbounds nuw %"class.clang::SourceLocation", ptr %16, i32 0, i32 0
  %42 = load i32, ptr %41, align 4
  %43 = getelementptr inbounds nuw %"class.clang::DeclAccessPair", ptr %17, i32 0, i32 0
  %44 = getelementptr inbounds nuw %"struct.llvm::support::detail::packed_endian_specific_integral", ptr %43, i32 0, i32 0
  %45 = getelementptr inbounds nuw %struct.anon.1032, ptr %44, i32 0, i32 0
  %46 = load i64, ptr %45, align 8
  %47 = call noundef i32 @_ZN5clang4Sema25CheckMemberOperatorAccessENS_14SourceLocationEPNS_4ExprERKNS_11SourceRangeENS_14DeclAccessPairE(ptr noundef nonnull align 8 dereferenceable(17560) %24, i32 %42, ptr noundef %40, ptr noundef nonnull align 4 dereferenceable(8) %12, i64 %46)
  ret i32 %47
}