; Function Attrs: mustprogress nounwind uwtable
define dso_local noundef range(i32 0, 4) i32 @_ZN5clang4Sema25CheckMemberOperatorAccessENS_14SourceLocationEPNS_4ExprEN4llvm8ArrayRefIS3_EENS_14DeclAccessPairE(ptr noundef nonnull align 8 dereferenceable(17560) %0, i32 %1, ptr noundef %2, ptr readonly captures(none) %3, i64 %4, i64 %5) local_unnamed_addr #0 align 2 {
  %7 = alloca %"class.clang::SourceRange", align 8
  store i32 0, ptr %7, align 8
  %8 = getelementptr inbounds nuw i8, ptr %7, i64 4
  store i32 0, ptr %8, align 4
  %9 = icmp eq i64 %4, 0
  br i1 %9, label %17, label %10

10:                                               ; preds = %6
  %11 = load ptr, ptr %3, align 8
  %12 = tail call i32 @_ZNK5clang4Stmt11getBeginLocEv(ptr noundef nonnull align 8 dereferenceable(8) %11) #15
  %13 = getelementptr ptr, ptr %3, i64 %4
  %14 = getelementptr i8, ptr %13, i64 -8
  %15 = load ptr, ptr %14, align 8
  %16 = tail call i32 @_ZNK5clang4Stmt9getEndLocEv(ptr noundef nonnull align 8 dereferenceable(8) %15) #15
  %.sroa.2.0.insert.ext = zext i32 %16 to i64
  %.sroa.2.0.insert.shift = shl nuw i64 %.sroa.2.0.insert.ext, 32
  %.sroa.0.0.insert.ext = zext i32 %12 to i64
  %.sroa.0.0.insert.insert = or disjoint i64 %.sroa.2.0.insert.shift, %.sroa.0.0.insert.ext
  store i64 %.sroa.0.0.insert.insert, ptr %7, align 8
  br label %17

17:                                               ; preds = %10, %6
  %18 = call noundef i32 @_ZN5clang4Sema25CheckMemberOperatorAccessENS_14SourceLocationEPNS_4ExprERKNS_11SourceRangeENS_14DeclAccessPairE(ptr noundef nonnull align 8 dereferenceable(17560) %0, i32 %1, ptr noundef %2, ptr noundef nonnull align 4 dereferenceable(8) %7, i64 %5)
  ret i32 %18
}